; Function Attrs: mustprogress uwtable
define void @_ZN6icu_7522RuleBasedBreakIteratorC2EPNS_14RBBIDataHeaderER10UErrorCode(ptr noundef nonnull align 8 dereferenceable(745) %this, ptr noundef %data, ptr noundef nonnull align 4 dereferenceable(4) %status) unnamed_addr #1 align 2 personality ptr @__gxx_personality_v0 {
entry:
  tail call void @_ZN6icu_7522RuleBasedBreakIteratorC2EP10UErrorCode(ptr noundef nonnull align 8 dereferenceable(745) %this, ptr noundef nonnull %status)
  %call = tail call noundef ptr @_ZN6icu_757UMemorynwEm(i64 noundef 144) #15
  %new.isnull = icmp eq ptr %call, null
  br i1 %new.isnull, label %new.cont.thread, label %new.notnull

new.notnull:                                      ; preds = %entry
  invoke void @_ZN6icu_7515RBBIDataWrapperC1EPKNS_14RBBIDataHeaderER10UErrorCode(ptr noundef nonnull align 8 dereferenceable(137) %call, ptr noundef %data, ptr noundef nonnull align 4 dereferenceable(4) %status)
          to label %new.cont unwind label %lpad

new.cont:                                         ; preds = %new.notnull
  %fData = getelementptr inbounds i8, ptr %this, i64 624
  store ptr %call, ptr %fData, align 8
  %0 = load i32, ptr %status, align 4
  %cmp.i = icmp slt i32 %0, 1
  br i1 %cmp.i, label %if.end7, label %if.end20

new.cont.thread:                                  ; preds = %entry
  %fData7 = getelementptr inbounds i8, ptr %this, i64 624
  store ptr null, ptr %fData7, align 8
  %1 = load i32, ptr %status, align 4
  %cmp.i8 = icmp slt i32 %1, 1
  br i1 %cmp.i8, label %if.end20.sink.split, label %if.end20

lpad:                                             ; preds = %new.notnull
  %2 = landingpad { ptr, i32 }
          cleanup
  tail call void @_ZN6icu_757UMemorydlEPv(ptr noundef nonnull %call) #15
  br label %ehcleanup

lpad2:                                            ; preds = %if.then10
  %3 = landingpad { ptr, i32 }
          cleanup
  br label %ehcleanup

if.end7:                                          ; preds = %new.cont
  %fForwardTable = getelementptr inbounds i8, ptr %call, i64 8
  %4 = load ptr, ptr %fForwardTable, align 8
  %fLookAheadResultsSize = getelementptr inbounds i8, ptr %4, i64 12
  %5 = load i32, ptr %fLookAheadResultsSize, align 4
  %cmp9.not = icmp eq i32 %5, 0
  br i1 %cmp9.not, label %if.end20, label %if.then10

if.then10:                                        ; preds = %if.end7
  %conv = zext i32 %5 to i64
  %mul = shl nuw nsw i64 %conv, 2
  %call15 = invoke noalias ptr @uprv_malloc_75(i64 noundef %mul) #16
          to label %invoke.cont14 unwind label %lpad2

invoke.cont14:                                    ; preds = %if.then10
  %fLookAheadMatches = getelementptr inbounds i8, ptr %this, i64 736
  store ptr %call15, ptr %fLookAheadMatches, align 8
  %cmp17 = icmp eq ptr %call15, null
  br i1 %cmp17, label %if.end20.sink.split, label %if.end20

if.end20.sink.split:                              ; preds = %invoke.cont14, %new.cont.thread
  store i32 7, ptr %status, align 4
  br label %if.end20

if.end20:                                         ; preds = %if.end20.sink.split, %new.cont.thread, %invoke.cont14, %new.cont, %if.end7
  ret void

ehcleanup:                                        ; preds = %lpad, %lpad2
  %.pn = phi { ptr, i32 } [ %3, %lpad2 ], [ %2, %lpad ]
  tail call void @_ZN6icu_7522RuleBasedBreakIteratorD2Ev(ptr noundef nonnull align 8 dereferenceable(745) %this) #15
  resume { ptr, i32 } %.pn
}